; Function Attrs: mustprogress nofree norecurse nosync nounwind willreturn memory(argmem: read) uwtable
define noundef i32 @_ZNK6icu_759ScriptSet8hashCodeEv(ptr nocapture noundef nonnull readonly align 4 dereferenceable(28) %this) local_unnamed_addr #5 align 2 {
entry:
  br label %for.body

for.body:                                         ; preds = %entry, %for.body
  %indvars.iv = phi i64 [ 0, %entry ], [ %indvars.iv.next, %for.body ]
  %hash.04 = phi i32 [ 0, %entry ], [ %xor, %for.body ]
  %arrayidx = getelementptr inbounds [7 x i32], ptr %this, i64 0, i64 %indvars.iv
  %0 = load i32, ptr %arrayidx, align 4
  %xor = xor i32 %0, %hash.04
  %indvars.iv.next = add nuw nsw i64 %indvars.iv, 1
  %exitcond.not = icmp eq i64 %indvars.iv.next, 7
  br i1 %exitcond.not, label %for.end, label %for.body, !llvm.loop !11

for.end:                                          ; preds = %for.body
  ret i32 %xor
}